target datalayout = "e-m:e-p270:32:32-p271:32:32-p272:64:64-i64:64-i128:128-f80:128-n8:16:32:64-S128"
target triple = "x86_64-pc-linux-gnu"

@.str = private unnamed_addr constant [10 x i8] c"(unknown)\00", align 1
@stderr = external global ptr, align 8
@.str.1 = private unnamed_addr constant [28 x i8] c"Unable to decode frame: %s\0A\00", align 1
@.str.2 = private unnamed_addr constant [24 x i8] c"(%-40s)\090x%p - %s + %s\0A\00", align 1

; Function Attrs: mustprogress uwtable
define dso_local void @_ZN4pbrt15PrintStackTraceEv() #4 {
  %1 = alloca [32 x ptr], align 16
  %2 = alloca i32, align 4
  %3 = alloca ptr, align 8
  %4 = alloca i32, align 4
  %5 = alloca i32, align 4
  %6 = alloca [1024 x i8], align 16
  %7 = alloca [1024 x i8], align 16
  %8 = alloca [64 x i8], align 16
  %9 = alloca i32, align 4
  %10 = alloca ptr, align 8
  %11 = alloca ptr, align 8
  %12 = alloca ptr, align 8
  %13 = alloca ptr, align 8
  %14 = alloca ptr, align 8
  call void @llvm.lifetime.start.p0(i64 256, ptr %1) #3
  call void @llvm.lifetime.start.p0(i64 4, ptr %2) #3
  %15 = getelementptr inbounds [32 x ptr], ptr %1, i64 0, i64 0
  %16 = call i32 @backtrace(ptr noundef %15, i32 noundef 32)
  store i32 %16, ptr %2, align 4, !tbaa !4
  call void @llvm.lifetime.start.p0(i64 8, ptr %3) #3
  %17 = getelementptr inbounds [32 x ptr], ptr %1, i64 0, i64 0
  %18 = load i32, ptr %2, align 4, !tbaa !4
  %19 = call ptr @backtrace_symbols(ptr noundef %17, i32 noundef %18) #3
  store ptr %19, ptr %3, align 8, !tbaa !8
  call void @llvm.lifetime.start.p0(i64 4, ptr %4) #3
  store i32 0, ptr %4, align 4, !tbaa !4
  br label %20

20:                                               ; preds = %150, %0
  %21 = load i32, ptr %4, align 4, !tbaa !4
  %22 = load i32, ptr %2, align 4, !tbaa !4
  %23 = icmp slt i32 %21, %22
  br i1 %23, label %25, label %24

24:                                               ; preds = %20
  store i32 2, ptr %5, align 4
  call void @llvm.lifetime.end.p0(i64 4, ptr %4) #3
  br label %153

25:                                               ; preds = %20
  call void @llvm.lifetime.start.p0(i64 1024, ptr %6) #3
  call void @llvm.memset.p0.i64(ptr align 16 %6, i8 0, i64 1024, i1 false)
  call void @llvm.lifetime.start.p0(i64 1024, ptr %7) #3
  call void @llvm.memset.p0.i64(ptr align 16 %7, i8 0, i64 1024, i1 false)
  call void @llvm.lifetime.start.p0(i64 64, ptr %8) #3
  call void @llvm.memset.p0.i64(ptr align 16 %8, i8 0, i64 64, i1 false)
  call void @llvm.lifetime.start.p0(i64 4, ptr %9) #3
  store i32 0, ptr %9, align 4, !tbaa !4
  call void @llvm.lifetime.start.p0(i64 8, ptr %10) #3
  store ptr null, ptr %10, align 8, !tbaa !12
  call void @llvm.lifetime.start.p0(i64 8, ptr %11) #3
  %26 = load ptr, ptr %3, align 8, !tbaa !8
  %27 = load i32, ptr %4, align 4, !tbaa !4
  %28 = sext i32 %27 to i64
  %29 = getelementptr inbounds ptr, ptr %26, i64 %28
  %30 = load ptr, ptr %29, align 8, !tbaa !12
  store ptr %30, ptr %11, align 8, !tbaa !12
  call void @llvm.lifetime.start.p0(i64 8, ptr %12) #3
  %31 = getelementptr inbounds [1024 x i8], ptr %6, i64 0, i64 0
  store ptr %31, ptr %12, align 8, !tbaa !12
  br label %32

32:                                               ; preds = %43, %25
  %33 = load ptr, ptr %11, align 8, !tbaa !12
  %34 = load i8, ptr %33, align 1, !tbaa !14
  %35 = icmp ne i8 %34, 0
  br i1 %35, label %36, label %41

36:                                               ; preds = %32
  %37 = load ptr, ptr %11, align 8, !tbaa !12
  %38 = load i8, ptr %37, align 1, !tbaa !14
  %39 = sext i8 %38 to i32
  %40 = icmp ne i32 %39, 40
  br label %41

41:                                               ; preds = %36, %32
  %42 = phi i1 [ false, %32 ], [ %40, %36 ]
  br i1 %42, label %43, label %49

43:                                               ; preds = %41
  %44 = load ptr, ptr %11, align 8, !tbaa !12
  %45 = getelementptr inbounds nuw i8, ptr %44, i32 1
  store ptr %45, ptr %11, align 8, !tbaa !12
  %46 = load i8, ptr %44, align 1, !tbaa !14
  %47 = load ptr, ptr %12, align 8, !tbaa !12
  %48 = getelementptr inbounds nuw i8, ptr %47, i32 1
  store ptr %48, ptr %12, align 8, !tbaa !12
  store i8 %46, ptr %47, align 1, !tbaa !14
  br label %32, !llvm.loop !15

49:                                               ; preds = %41
  %50 = load ptr, ptr %12, align 8, !tbaa !12
  store i8 0, ptr %50, align 1, !tbaa !14
  %51 = load ptr, ptr %11, align 8, !tbaa !12
  %52 = getelementptr inbounds nuw i8, ptr %51, i32 1
  store ptr %52, ptr %11, align 8, !tbaa !12
  %53 = load ptr, ptr %11, align 8, !tbaa !12
  %54 = load i8, ptr %53, align 1, !tbaa !14
  %55 = sext i8 %54 to i32
  %56 = icmp eq i32 %55, 43
  br i1 %56, label %57, label %62

57:                                               ; preds = %49
  %58 = getelementptr inbounds [1024 x i8], ptr %7, i64 0, i64 0
  %59 = call ptr @strcpy(ptr noundef %58, ptr noundef @.str) #3
  %60 = load ptr, ptr %11, align 8, !tbaa !12
  %61 = getelementptr inbounds nuw i8, ptr %60, i32 1
  store ptr %61, ptr %11, align 8, !tbaa !12
  br label %101

62:                                               ; preds = %49
  call void @llvm.lifetime.start.p0(i64 8, ptr %13) #3
  %63 = getelementptr inbounds [1024 x i8], ptr %7, i64 0, i64 0
  store ptr %63, ptr %13, align 8, !tbaa !12
  br label %64

64:                                               ; preds = %75, %62
  %65 = load ptr, ptr %11, align 8, !tbaa !12
  %66 = load i8, ptr %65, align 1, !tbaa !14
  %67 = icmp ne i8 %66, 0
  br i1 %67, label %68, label %73

68:                                               ; preds = %64
  %69 = load ptr, ptr %11, align 8, !tbaa !12
  %70 = load i8, ptr %69, align 1, !tbaa !14
  %71 = sext i8 %70 to i32
  %72 = icmp ne i32 %71, 43
  br label %73

73:                                               ; preds = %68, %64
  %74 = phi i1 [ false, %64 ], [ %72, %68 ]
  br i1 %74, label %75, label %81

75:                                               ; preds = %73
  %76 = load ptr, ptr %11, align 8, !tbaa !12
  %77 = getelementptr inbounds nuw i8, ptr %76, i32 1
  store ptr %77, ptr %11, align 8, !tbaa !12
  %78 = load i8, ptr %76, align 1, !tbaa !14
  %79 = load ptr, ptr %13, align 8, !tbaa !12
  %80 = getelementptr inbounds nuw i8, ptr %79, i32 1
  store ptr %80, ptr %13, align 8, !tbaa !12
  store i8 %78, ptr %79, align 1, !tbaa !14
  br label %64, !llvm.loop !17

81:                                               ; preds = %73
  %82 = load ptr, ptr %13, align 8, !tbaa !12
  store i8 0, ptr %82, align 1, !tbaa !14
  %83 = load ptr, ptr %11, align 8, !tbaa !12
  %84 = load i8, ptr %83, align 1, !tbaa !14
  %85 = sext i8 %84 to i32
  %86 = icmp ne i32 %85, 43
  br i1 %86, label %87, label %95

87:                                               ; preds = %81
  %88 = load ptr, ptr @stderr, align 8, !tbaa !18
  %89 = load ptr, ptr %3, align 8, !tbaa !8
  %90 = load i32, ptr %4, align 4, !tbaa !4
  %91 = sext i32 %90 to i64
  %92 = getelementptr inbounds ptr, ptr %89, i64 %91
  %93 = load ptr, ptr %92, align 8, !tbaa !12
  %94 = call i32 (ptr, ptr, ...) @fprintf(ptr noundef %88, ptr noundef @.str.1, ptr noundef %93) #3
  store i32 4, ptr %5, align 4
  br label %98

95:                                               ; preds = %81
  %96 = load ptr, ptr %11, align 8, !tbaa !12
  %97 = getelementptr inbounds nuw i8, ptr %96, i32 1
  store ptr %97, ptr %11, align 8, !tbaa !12
  store i32 0, ptr %5, align 4
  br label %98

98:                                               ; preds = %95, %87
  call void @llvm.lifetime.end.p0(i64 8, ptr %13) #3
  %99 = load i32, ptr %5, align 4
  switch i32 %99, label %147 [
    i32 0, label %100
  ]

100:                                              ; preds = %98
  br label %101

101:                                              ; preds = %100, %57
  call void @llvm.lifetime.start.p0(i64 8, ptr %14) #3
  %102 = getelementptr inbounds [64 x i8], ptr %8, i64 0, i64 0
  store ptr %102, ptr %14, align 8, !tbaa !12
  br label %103

103:                                              ; preds = %114, %101
  %104 = load ptr, ptr %11, align 8, !tbaa !12
  %105 = load i8, ptr %104, align 1, !tbaa !14
  %106 = icmp ne i8 %105, 0
  br i1 %106, label %107, label %112

107:                                              ; preds = %103
  %108 = load ptr, ptr %11, align 8, !tbaa !12
  %109 = load i8, ptr %108, align 1, !tbaa !14
  %110 = sext i8 %109 to i32
  %111 = icmp ne i32 %110, 41
  br label %112

112:                                              ; preds = %107, %103
  %113 = phi i1 [ false, %103 ], [ %111, %107 ]
  br i1 %113, label %114, label %120

114:                                              ; preds = %112
  %115 = load ptr, ptr %11, align 8, !tbaa !12
  %116 = getelementptr inbounds nuw i8, ptr %115, i32 1
  store ptr %116, ptr %11, align 8, !tbaa !12
  %117 = load i8, ptr %115, align 1, !tbaa !14
  %118 = load ptr, ptr %14, align 8, !tbaa !12
  %119 = getelementptr inbounds nuw i8, ptr %118, i32 1
  store ptr %119, ptr %14, align 8, !tbaa !12
  store i8 %117, ptr %118, align 1, !tbaa !14
  br label %103, !llvm.loop !20

120:                                              ; preds = %112
  %121 = load ptr, ptr %14, align 8, !tbaa !12
  store i8 0, ptr %121, align 1, !tbaa !14
  store i32 0, ptr %9, align 4, !tbaa !4
  %122 = getelementptr inbounds [1024 x i8], ptr %7, i64 0, i64 0
  %123 = call ptr @__cxa_demangle(ptr noundef %122, ptr noundef null, ptr noundef null, ptr noundef %9)
  store ptr %123, ptr %10, align 8, !tbaa !12
  %124 = load i32, ptr %9, align 4, !tbaa !4
  %125 = icmp eq i32 %124, 0
  br i1 %125, label %126, label %136

126:                                              ; preds = %120
  %127 = load ptr, ptr @stderr, align 8, !tbaa !18
  %128 = getelementptr inbounds [1024 x i8], ptr %6, i64 0, i64 0
  %129 = load i32, ptr %4, align 4, !tbaa !4
  %130 = sext i32 %129 to i64
  %131 = getelementptr inbounds [32 x ptr], ptr %1, i64 0, i64 %130
  %132 = load ptr, ptr %131, align 8, !tbaa !21
  %133 = load ptr, ptr %10, align 8, !tbaa !12
  %134 = getelementptr inbounds [64 x i8], ptr %8, i64 0, i64 0
  %135 = call i32 (ptr, ptr, ...) @fprintf(ptr noundef %127, ptr noundef @.str.2, ptr noundef %128, ptr noundef %132, ptr noundef %133, ptr noundef %134) #3
  br label %146

136:                                              ; preds = %120
  %137 = load ptr, ptr @stderr, align 8, !tbaa !18
  %138 = getelementptr inbounds [1024 x i8], ptr %6, i64 0, i64 0
  %139 = load i32, ptr %4, align 4, !tbaa !4
  %140 = sext i32 %139 to i64
  %141 = getelementptr inbounds [32 x ptr], ptr %1, i64 0, i64 %140
  %142 = load ptr, ptr %141, align 8, !tbaa !21
  %143 = getelementptr inbounds [1024 x i8], ptr %7, i64 0, i64 0
  %144 = getelementptr inbounds [64 x i8], ptr %8, i64 0, i64 0
  %145 = call i32 (ptr, ptr, ...) @fprintf(ptr noundef %137, ptr noundef @.str.2, ptr noundef %138, ptr noundef %142, ptr noundef %143, ptr noundef %144) #3
  br label %146

146:                                              ; preds = %136, %126
  call void @llvm.lifetime.end.p0(i64 8, ptr %14) #3
  store i32 0, ptr %5, align 4
  br label %147

147:                                              ; preds = %146, %98
  call void @llvm.lifetime.end.p0(i64 8, ptr %12) #3
  call void @llvm.lifetime.end.p0(i64 8, ptr %11) #3
  call void @llvm.lifetime.end.p0(i64 8, ptr %10) #3
  call void @llvm.lifetime.end.p0(i64 4, ptr %9) #3
  call void @llvm.lifetime.end.p0(i64 64, ptr %8) #3
  call void @llvm.lifetime.end.p0(i64 1024, ptr %7) #3
  call void @llvm.lifetime.end.p0(i64 1024, ptr %6) #3
  %148 = load i32, ptr %5, align 4
  switch i32 %148, label %155 [
    i32 0, label %149
    i32 4, label %150
  ]

149:                                              ; preds = %147
  br label %150

150:                                              ; preds = %149, %147
  %151 = load i32, ptr %4, align 4, !tbaa !4
  %152 = add nsw i32 %151, 1
  store i32 %152, ptr %4, align 4, !tbaa !4
  br label %20, !llvm.loop !22

153:                                              ; preds = %24
  %154 = load ptr, ptr %3, align 8, !tbaa !8
  call void @free(ptr noundef %154) #3
  call void @llvm.lifetime.end.p0(i64 8, ptr %3) #3
  call void @llvm.lifetime.end.p0(i64 4, ptr %2) #3
  call void @llvm.lifetime.end.p0(i64 256, ptr %1) #3
  ret void

155:                                              ; preds = %147
  unreachable
}