; Function Attrs: mustprogress uwtable
define dso_local void @_ZN4pbrt15PrintStackTraceEv() local_unnamed_addr #3 {
  %1 = alloca [32 x ptr], align 16
  %2 = alloca [1024 x i8], align 16
  %3 = alloca [1024 x i8], align 16
  %4 = alloca [64 x i8], align 16
  %5 = alloca i32, align 4
  call void @llvm.lifetime.start.p0(i64 256, ptr nonnull %1) #24
  %6 = call i32 @backtrace(ptr noundef nonnull %1, i32 noundef 32)
  %7 = call ptr @backtrace_symbols(ptr noundef nonnull %1, i32 noundef %6) #24
  %8 = icmp sgt i32 %6, 0
  br i1 %8, label %.lr.ph.preheader, label %._crit_edge

.lr.ph.preheader:                                 ; preds = %0
  %wide.trip.count = zext nneg i32 %6 to i64
  br label %.lr.ph

._crit_edge:                                      ; preds = %44, %0
  call void @free(ptr noundef %7) #24
  call void @llvm.lifetime.end.p0(i64 256, ptr nonnull %1) #24
  ret void

.lr.ph:                                           ; preds = %.lr.ph.preheader, %44
  %indvars.iv = phi i64 [ 0, %.lr.ph.preheader ], [ %indvars.iv.next, %44 ]
  call void @llvm.lifetime.start.p0(i64 1024, ptr nonnull %2) #24
  call void @llvm.memset.p0.i64(ptr noundef nonnull align 16 dereferenceable(1024) %2, i8 0, i64 1024, i1 false)
  call void @llvm.lifetime.start.p0(i64 1024, ptr nonnull %3) #24
  call void @llvm.memset.p0.i64(ptr noundef nonnull align 16 dereferenceable(1024) %3, i8 0, i64 1024, i1 false)
  call void @llvm.lifetime.start.p0(i64 64, ptr nonnull %4) #24
  call void @llvm.memset.p0.i64(ptr noundef nonnull align 16 dereferenceable(64) %4, i8 0, i64 64, i1 false)
  call void @llvm.lifetime.start.p0(i64 4, ptr nonnull %5) #24
  store i32 0, ptr %5, align 4, !tbaa !4
  %9 = getelementptr inbounds nuw ptr, ptr %7, i64 %indvars.iv
  %10 = load ptr, ptr %9, align 8, !tbaa !8
  br label %11

11:                                               ; preds = %13, %.lr.ph
  %.038 = phi ptr [ %10, %.lr.ph ], [ %14, %13 ]
  %.037 = phi ptr [ %2, %.lr.ph ], [ %15, %13 ]
  %12 = load i8, ptr %.038, align 1, !tbaa !11
  switch i8 %12, label %13 [
    i8 0, label %.critedge
    i8 40, label %.critedge
  ]

13:                                               ; preds = %11
  %14 = getelementptr inbounds nuw i8, ptr %.038, i64 1
  %15 = getelementptr inbounds nuw i8, ptr %.037, i64 1
  store i8 %12, ptr %.037, align 1, !tbaa !11
  br label %11, !llvm.loop !12

.critedge:                                        ; preds = %11, %11
  store i8 0, ptr %.037, align 1, !tbaa !11
  %16 = getelementptr inbounds nuw i8, ptr %.038, i64 1
  %17 = load i8, ptr %16, align 1, !tbaa !11
  %18 = icmp eq i8 %17, 43
  br i1 %18, label %19, label %.preheader

19:                                               ; preds = %.critedge
  call void @llvm.memcpy.p0.p0.i64(ptr noundef nonnull align 16 dereferenceable(10) %3, ptr noundef nonnull align 1 dereferenceable(10) @.str, i64 10, i1 false) #24
  %20 = getelementptr inbounds nuw i8, ptr %.038, i64 2
  br label %.preheader53

.preheader53:                                     ; preds = %.thread, %19
  %.4.ph = phi ptr [ %25, %.thread ], [ %20, %19 ]
  br label %29

.preheader:                                       ; preds = %.critedge, %22
  %21 = phi i8 [ %.pr, %22 ], [ %17, %.critedge ]
  %.2 = phi ptr [ %23, %22 ], [ %16, %.critedge ]
  %.036 = phi ptr [ %24, %22 ], [ %3, %.critedge ]
  switch i8 %21, label %22 [
    i8 0, label %.critedge2
    i8 43, label %.critedge2
  ]

22:                                               ; preds = %.preheader
  %23 = getelementptr inbounds nuw i8, ptr %.2, i64 1
  %24 = getelementptr inbounds nuw i8, ptr %.036, i64 1
  store i8 %21, ptr %.036, align 1, !tbaa !11
  %.pr = load i8, ptr %23, align 1, !tbaa !11
  br label %.preheader, !llvm.loop !14

.critedge2:                                       ; preds = %.preheader, %.preheader
  store i8 0, ptr %.036, align 1, !tbaa !11
  %.not47 = icmp eq i8 %21, 43
  br i1 %.not47, label %.thread, label %26

.thread:                                          ; preds = %.critedge2
  %25 = getelementptr inbounds nuw i8, ptr %.2, i64 1
  br label %.preheader53

26:                                               ; preds = %.critedge2
  %27 = load ptr, ptr @stderr, align 8, !tbaa !15
  %28 = call i32 (ptr, ptr, ...) @fprintf(ptr noundef %27, ptr noundef nonnull @.str.1, ptr noundef %10) #25
  br label %44

29:                                               ; preds = %.preheader53, %31
  %.4 = phi ptr [ %32, %31 ], [ %.4.ph, %.preheader53 ]
  %.0 = phi ptr [ %33, %31 ], [ %4, %.preheader53 ]
  %30 = load i8, ptr %.4, align 1, !tbaa !11
  switch i8 %30, label %31 [
    i8 0, label %.critedge4
    i8 41, label %.critedge4
  ]

31:                                               ; preds = %29
  %32 = getelementptr inbounds nuw i8, ptr %.4, i64 1
  %33 = getelementptr inbounds nuw i8, ptr %.0, i64 1
  store i8 %30, ptr %.0, align 1, !tbaa !11
  br label %29, !llvm.loop !17

.critedge4:                                       ; preds = %29, %29
  store i8 0, ptr %.0, align 1, !tbaa !11
  store i32 0, ptr %5, align 4, !tbaa !4
  %34 = call ptr @__cxa_demangle(ptr noundef nonnull %3, ptr noundef null, ptr noundef null, ptr noundef nonnull %5)
  %35 = load i32, ptr %5, align 4, !tbaa !4
  %36 = icmp eq i32 %35, 0
  %37 = load ptr, ptr @stderr, align 8, !tbaa !15
  %38 = getelementptr inbounds nuw [32 x ptr], ptr %1, i64 0, i64 %indvars.iv
  %39 = load ptr, ptr %38, align 8, !tbaa !18
  br i1 %36, label %40, label %42

40:                                               ; preds = %.critedge4
  %41 = call i32 (ptr, ptr, ...) @fprintf(ptr noundef %37, ptr noundef nonnull @.str.2, ptr noundef nonnull %2, ptr noundef %39, ptr noundef %34, ptr noundef nonnull %4) #25
  br label %44

42:                                               ; preds = %.critedge4
  %43 = call i32 (ptr, ptr, ...) @fprintf(ptr noundef %37, ptr noundef nonnull @.str.2, ptr noundef nonnull %2, ptr noundef %39, ptr noundef nonnull %3, ptr noundef nonnull %4) #25
  br label %44

44:                                               ; preds = %26, %40, %42
  call void @llvm.lifetime.end.p0(i64 4, ptr nonnull %5) #24
  call void @llvm.lifetime.end.p0(i64 64, ptr nonnull %4) #24
  call void @llvm.lifetime.end.p0(i64 1024, ptr nonnull %3) #24
  call void @llvm.lifetime.end.p0(i64 1024, ptr nonnull %2) #24
  %indvars.iv.next = add nuw nsw i64 %indvars.iv, 1
  %exitcond.not = icmp eq i64 %indvars.iv.next, %wide.trip.count
  br i1 %exitcond.not, label %._crit_edge, label %.lr.ph, !llvm.loop !19
}